(dp1
S'description'
p2
(dp3
S'type'
p4
S'string'
p5
sS'sortable'
p6
I5
sS'sql'
p7
S'CHAR(512)'
p8
ssS'end_date'
p9
(dp10
g4
S'date'
p11
sg6
I3
sg7
S'DATE'
p12
ssS'title'
p13
(dp14
g4
g5
sg6
I4
sg7
S'CHAR(512)'
p15
ssS'Importance'
p16
(dp17
g4
S'integer'
p18
sg6
I7
sg7
S'INTEGER'
p19
ssS'date_limit'
p20
(dp21
g4
g5
sg6
I6
sg7
S'CHAR(512)'
p22
ssS'start_date'
p23
(dp24
g4
g11
sg6
I2
sg7
S'DATE'
p25
ssS'id'
p26
(dp27
g4
g26
sg6
I1
sg7
S'INTEGER PRIMARY KEY AUTOINCREMENT'
p28
ss.