(dp1
S'event_id'
p2
(dp3
S'type'
p4
S'reference history'
p5
sS'sortable'
p6
I3
sS'sql'
p7
S'INTEGER REFERENCES history(id) ON DELETE CASCADE'
p8
ssS'rating'
p9
(dp10
g4
S'integer'
p11
sg6
I4
sg7
S'INTEGER'
p12
ssS'average'
p13
(dp14
g4
S'double'
p15
sg6
I5
sg7
S'DOUBLE'
p16
ssS'id'
p17
(dp18
g4
S'id'
p19
sg6
I1
sg7
S'INTEGER PRIMARY KEY AUTOINCREMENT'
p20
ssS'created_by'
p21
(dp22
g4
S'string'
p23
sg6
I2
sg7
S'CHAR(512)'
p24
ss.